; Function Attrs: nounwind uwtable
define hidden noundef ptr @X509_find_by_subject(ptr noundef %0, ptr noundef %1) local_unnamed_addr #0 {
  %3 = tail call i64 @sk_num(ptr noundef %0) #8
  %.not = icmp eq i64 %3, 0
  br i1 %.not, label %._crit_edge, label %.lr.ph

.lr.ph:                                           ; preds = %2
  %4 = getelementptr inbounds nuw i8, ptr %1, i64 24
  %5 = getelementptr inbounds nuw i8, ptr %1, i64 8
  %6 = getelementptr inbounds nuw i8, ptr %1, i64 32
  br label %7

7:                                                ; preds = %.lr.ph, %X509_NAME_cmp.exit.thread
  %.010 = phi i64 [ 0, %.lr.ph ], [ %35, %X509_NAME_cmp.exit.thread ]
  %8 = tail call ptr @sk_value(ptr noundef %0, i64 noundef %.010) #8
  %9 = load ptr, ptr %8, align 8, !tbaa !6
  %10 = getelementptr inbounds nuw i8, ptr %9, i64 40
  %11 = load ptr, ptr %10, align 8, !tbaa !42
  %12 = getelementptr inbounds nuw i8, ptr %11, i64 24
  %13 = load ptr, ptr %12, align 8, !tbaa !33
  %.not.i = icmp eq ptr %13, null
  br i1 %.not.i, label %17, label %14

14:                                               ; preds = %7
  %15 = getelementptr inbounds nuw i8, ptr %11, i64 8
  %16 = load i32, ptr %15, align 8, !tbaa !37
  %.not16.i = icmp eq i32 %16, 0
  br i1 %.not16.i, label %20, label %17

17:                                               ; preds = %14, %7
  %18 = tail call i32 @i2d_X509_NAME(ptr noundef nonnull %11, ptr noundef null) #8
  %19 = icmp slt i32 %18, 0
  br i1 %19, label %X509_NAME_cmp.exit.thread, label %20

20:                                               ; preds = %17, %14
  %21 = load ptr, ptr %4, align 8, !tbaa !33
  %.not17.i = icmp eq ptr %21, null
  br i1 %.not17.i, label %24, label %22

22:                                               ; preds = %20
  %23 = load i32, ptr %5, align 8, !tbaa !37
  %.not18.i = icmp eq i32 %23, 0
  br i1 %.not18.i, label %27, label %24

24:                                               ; preds = %22, %20
  %25 = tail call i32 @i2d_X509_NAME(ptr noundef nonnull %1, ptr noundef null) #8
  %26 = icmp slt i32 %25, 0
  br i1 %26, label %X509_NAME_cmp.exit.thread, label %27

27:                                               ; preds = %24, %22
  %28 = getelementptr inbounds nuw i8, ptr %11, i64 32
  %29 = load i32, ptr %28, align 8, !tbaa !38
  %30 = load i32, ptr %6, align 8, !tbaa !38
  %.not19.i = icmp eq i32 %29, %30
  br i1 %.not19.i, label %X509_NAME_cmp.exit, label %X509_NAME_cmp.exit.thread

X509_NAME_cmp.exit:                               ; preds = %27
  %31 = load ptr, ptr %12, align 8, !tbaa !33
  %32 = load ptr, ptr %4, align 8, !tbaa !33
  %33 = sext i32 %29 to i64
  %bcmp = tail call i32 @bcmp(ptr %31, ptr %32, i64 %33)
  %34 = icmp eq i32 %bcmp, 0
  br i1 %34, label %._crit_edge, label %X509_NAME_cmp.exit.thread

X509_NAME_cmp.exit.thread:                        ; preds = %27, %24, %17, %X509_NAME_cmp.exit
  %35 = add nuw i64 %.010, 1
  %36 = tail call i64 @sk_num(ptr noundef %0) #8
  %37 = icmp ult i64 %35, %36
  br i1 %37, label %7, label %._crit_edge, !llvm.loop !61

._crit_edge:                                      ; preds = %X509_NAME_cmp.exit, %X509_NAME_cmp.exit.thread, %2
  %.08 = phi ptr [ null, %2 ], [ null, %X509_NAME_cmp.exit.thread ], [ %8, %X509_NAME_cmp.exit ]
  ret ptr %.08
}